target datalayout = "e-m:e-p270:32:32-p271:32:32-p272:64:64-i64:64-i128:128-f80:128-n8:16:32:64-S128"
target triple = "x86_64-pc-linux-gnu"

; Function Attrs: inlinehint nounwind uwtable
define internal void @Py_DECREF(ptr noundef %0) #4 {
  %2 = alloca ptr, align 8
  store ptr %0, ptr %2, align 8, !tbaa !4
  %3 = load ptr, ptr %2, align 8, !tbaa !4
  call void @_Py_DecRef(ptr noundef %3)
  ret void
}

; Function Attrs: inlinehint nounwind uwtable
define internal void @Py_XDECREF(ptr noundef %0) #4 {
  %2 = alloca ptr, align 8
  store ptr %0, ptr %2, align 8, !tbaa !4
  %3 = load ptr, ptr %2, align 8, !tbaa !4
  %4 = icmp ne ptr %3, null
  br i1 %4, label %5, label %7

5:                                                ; preds = %1
  %6 = load ptr, ptr %2, align 8, !tbaa !4
  call void @Py_DECREF(ptr noundef %6)
  br label %7

7:                                                ; preds = %5, %1
  ret void
}

; Function Attrs: nounwind uwtable
define internal ptr @pwd_getpwall_impl(ptr noundef %0) #0 {
  %2 = alloca ptr, align 8
  %3 = alloca ptr, align 8
  %4 = alloca ptr, align 8
  %5 = alloca ptr, align 8
  %6 = alloca i32, align 4
  %7 = alloca ptr, align 8
  store ptr %0, ptr %3, align 8, !tbaa !4
  call void @llvm.lifetime.start.p0(i64 8, ptr %4) #6
  call void @llvm.lifetime.start.p0(i64 8, ptr %5) #6
  %8 = call ptr @PyList_New(i64 noundef 0)
  store ptr %8, ptr %4, align 8, !tbaa !4
  %9 = icmp eq ptr %8, null
  br i1 %9, label %10, label %11

10:                                               ; preds = %1
  store ptr null, ptr %2, align 8
  store i32 1, ptr %6, align 4
  br label %36

11:                                               ; preds = %1
  call void @setpwent()
  br label %12

12:                                               ; preds = %33, %11
  %13 = call ptr @getpwent()
  store ptr %13, ptr %5, align 8, !tbaa !24
  %14 = icmp ne ptr %13, null
  br i1 %14, label %15, label %34

15:                                               ; preds = %12
  call void @llvm.lifetime.start.p0(i64 8, ptr %7) #6
  %16 = load ptr, ptr %3, align 8, !tbaa !4
  %17 = load ptr, ptr %5, align 8, !tbaa !24
  %18 = call ptr @mkpwent(ptr noundef %16, ptr noundef %17)
  store ptr %18, ptr %7, align 8, !tbaa !4
  %19 = load ptr, ptr %7, align 8, !tbaa !4
  %20 = icmp eq ptr %19, null
  br i1 %20, label %26, label %21

21:                                               ; preds = %15
  %22 = load ptr, ptr %4, align 8, !tbaa !4
  %23 = load ptr, ptr %7, align 8, !tbaa !4
  %24 = call i32 @PyList_Append(ptr noundef %22, ptr noundef %23)
  %25 = icmp ne i32 %24, 0
  br i1 %25, label %26, label %29

26:                                               ; preds = %21, %15
  %27 = load ptr, ptr %7, align 8, !tbaa !4
  call void @Py_XDECREF(ptr noundef %27)
  %28 = load ptr, ptr %4, align 8, !tbaa !4
  call void @Py_DECREF(ptr noundef %28)
  call void @endpwent()
  store ptr null, ptr %2, align 8
  store i32 1, ptr %6, align 4
  br label %31

29:                                               ; preds = %21
  %30 = load ptr, ptr %7, align 8, !tbaa !4
  call void @Py_DECREF(ptr noundef %30)
  store i32 0, ptr %6, align 4
  br label %31

31:                                               ; preds = %29, %26
  call void @llvm.lifetime.end.p0(i64 8, ptr %7) #6
  %32 = load i32, ptr %6, align 4
  switch i32 %32, label %36 [
    i32 0, label %33
  ]

33:                                               ; preds = %31
  br label %12, !llvm.loop !36

34:                                               ; preds = %12
  call void @endpwent()
  %35 = load ptr, ptr %4, align 8, !tbaa !4
  store ptr %35, ptr %2, align 8
  store i32 1, ptr %6, align 4
  br label %36

36:                                               ; preds = %34, %31, %10
  call void @llvm.lifetime.end.p0(i64 8, ptr %5) #6
  call void @llvm.lifetime.end.p0(i64 8, ptr %4) #6
  %37 = load ptr, ptr %2, align 8
  ret ptr %37
}

; Function Attrs: nounwind uwtable
define internal ptr @pwd_getpwall(ptr noundef %0, ptr noundef %1) #0 {
  %3 = alloca ptr, align 8
  %4 = alloca ptr, align 8
  store ptr %0, ptr %3, align 8, !tbaa !4
  store ptr %1, ptr %4, align 8, !tbaa !4
  %5 = load ptr, ptr %3, align 8, !tbaa !4
  %6 = call ptr @pwd_getpwall_impl(ptr noundef %5)
  ret ptr %6
}