; Function Attrs: nounwind uwtable
define internal ptr @pwd_getpwall(ptr noundef %0, ptr readnone captures(none) %1) #0 {
  %3 = tail call ptr @PyList_New(i64 noundef 0) #4
  %4 = icmp eq ptr %3, null
  br i1 %4, label %pwd_getpwall_impl.exit, label %5

5:                                                ; preds = %2
  tail call void @setpwent() #4
  %6 = tail call ptr @getpwent() #4
  %.not17.i = icmp eq ptr %6, null
  br i1 %.not17.i, label %.sink.split.i, label %.lr.ph.i

.lr.ph.i:                                         ; preds = %5, %12
  %7 = phi ptr [ %13, %12 ], [ %6, %5 ]
  %8 = tail call fastcc ptr @mkpwent(ptr noundef %0, ptr noundef %7)
  %9 = icmp eq ptr %8, null
  br i1 %9, label %.critedge.i, label %10

10:                                               ; preds = %.lr.ph.i
  %11 = tail call i32 @PyList_Append(ptr noundef nonnull %3, ptr noundef nonnull %8) #4
  %.not15.i = icmp eq i32 %11, 0
  tail call void @_Py_DecRef(ptr noundef nonnull %8) #4
  br i1 %.not15.i, label %12, label %.critedge.i

.critedge.i:                                      ; preds = %.lr.ph.i, %10
  tail call void @_Py_DecRef(ptr noundef nonnull %3) #4
  br label %.sink.split.i

12:                                               ; preds = %10
  %13 = tail call ptr @getpwent() #4
  %.not.i = icmp eq ptr %13, null
  br i1 %.not.i, label %.sink.split.i, label %.lr.ph.i, !llvm.loop !21

.sink.split.i:                                    ; preds = %12, %.critedge.i, %5
  %.0.ph.i = phi ptr [ null, %.critedge.i ], [ %3, %5 ], [ %3, %12 ]
  tail call void @endpwent() #4
  br label %pwd_getpwall_impl.exit

pwd_getpwall_impl.exit:                           ; preds = %2, %.sink.split.i
  %.0.i = phi ptr [ null, %2 ], [ %.0.ph.i, %.sink.split.i ]
  ret ptr %.0.i
}